(lp0
(lp1
I20
aI100
aI10
aI10000
aa(lp2
I400
aI200
aI100
aI10
aa(lp3
I200
aI10
aI100
aI100
aa(lp4
I100
aI40
aI20
aI100
aa(lp5
I2000
aI10
aI20
aI20
aa(lp6
I20
aI100
aI100
aI100
aa(lp7
I10
aI30
aI30
aI100
aa(lp8
I100
aI20
aI10
aI10000
aa(lp9
I2000
aI10
aI20
aI2000
aa(lp10
I10
aI120
aI10
aI100
aa(lp11
I20
aI200
aI20
aI200
aa(lp12
I1000
aI100
aI20
aI10
aa(lp13
I100
aI20
aI20
aI120
aa(lp14
I10
aI40
aI100
aI10
aa(lp15
I30
aI120
aI100
aI20
aa(lp16
I20
aI110
aI30
aI20
aa.