(lp0
(lp1
I400
aI120
aI10
aI10
aa(lp2
I200
aI10
aI100
aI100
aa(lp3
I20
aI30
aI10
aI10
aa(lp4
I100
aI20
aI100
aI100
aa(lp5
I10
aI100
aI100
aI20
aa(lp6
I10
aI120
aI100
aI100
aa(lp7
I10
aI20
aI10
aI20
aa(lp8
I120
aI100
aI10
aI10
aa(lp9
I110
aI100
aI10
aI20
aa(lp10
I20
aI20
aI100
aI100
aa(lp11
I100
aI10
aI20
aI100
aa(lp12
I20
aI100
aI20
aI100
aa.