(lp0
(lp1
S'max(add(1, 1), max(1, 1))'
p2
aS'add(add(1, 1), add(1, 1))'
p3
aS'mul(1, 1)'
p4
aS'add(1, 1)'
p5
aa(lp6
S'add(mul(1, 1), add(1, 1))'
p7
aS'max(mul(1, 1), max(1, 1))'
p8
aS'add(add(1, 1), add(1, 1))'
p9
aS'mul(1, 1)'
p10
aa(lp11
S'max(1, 1)'
p12
aS'mul(1, 1)'
p13
aS'mul(max(1, 1), add(1, 1))'
p14
aS'add(add(1, 1), mul(1, 1))'
p15
aa(lp16
S'max(mul(1, 1), max(1, 1))'
p17
aS'add(1, 1)'
p18
aS'max(1, 1)'
p19
aS'mul(max(1, 1), mul(1, 1))'
p20
aa(lp21
S'max(max(1, 1), add(1, 1))'
p22
aS'add(1, 1)'
p23
aS'add(1, 1)'
p24
aS'mul(1, 1)'
p25
aa(lp26
S'mul(max(1, 1), max(1, 1))'
p27
aS'mul(max(1, 1), mul(1, 1))'
p28
aS'max(max(1, 1), mul(1, 1))'
p29
aS'mul(mul(1, 1), max(1, 1))'
p30
aa(lp31
S'max(1, 1)'
p32
aS'mul(1, 1)'
p33
aS'add(1, 1)'
p34
aS'mul(add(1, 1), add(1, 1))'
p35
aa(lp36
S'mul(mul(1, 1), add(1, 1))'
p37
aS'mul(add(1, 1), max(1, 1))'
p38
aS'max(1, 1)'
p39
aS'max(add(1, 1), max(1, 1))'
p40
aa(lp41
S'add(1, 1)'
p42
aS'max(1, 1)'
p43
aS'mul(add(1, 1), mul(1, 1))'
p44
aS'add(add(1, 1), add(1, 1))'
p45
aa(lp46
S'max(1, 1)'
p47
aS'max(1, 1)'
p48
aS'max(max(1, 1), max(1, 1))'
p49
aS'max(mul(1, 1), mul(1, 1))'
p50
aa(lp51
S'mul(1, 1)'
p52
aS'mul(1, 1)'
p53
aS'add(1, 1)'
p54
aS'mul(add(1, 1), max(1, 1))'
p55
aa(lp56
S'mul(add(1, 1), max(1, 1))'
p57
aS'add(1, 1)'
p58
aS'max(1, 1)'
p59
aS'max(max(1, 1), max(1, 1))'
p60
aa.